target datalayout = "e-m:e-p270:32:32-p271:32:32-p272:64:64-i64:64-i128:128-f80:128-n8:16:32:64-S128"
target triple = "x86_64-pc-linux-gnu"

%"class.llvm::gi::PredicateMatcher" = type <{ ptr, i32, i32, i32, [4 x i8] }>
%"class.llvm::gi::PredicateMatcher.base" = type <{ ptr, i32, i32, i32 }>
%"class.llvm::gi::InstructionPredicateMatcher.base" = type { %"class.llvm::gi::PredicateMatcher.base" }
%"class.llvm::TreePredicateFn" = type { ptr }
%"class.llvm::gi::InstructionImmPredicateMatcher" = type { %"class.llvm::gi::InstructionPredicateMatcher.base", %"class.llvm::TreePredicateFn" }

; Function Attrs: mustprogress nounwind uwtable
define linkonce_odr hidden noundef ptr @_ZN4llvm16cast_convert_valINS_2gi30InstructionImmPredicateMatcherEPKNS1_16PredicateMatcherES5_E4doitES5_(ptr noundef %0) #1 comdat align 2 {
  %2 = alloca ptr, align 8
  store ptr %0, ptr %2, align 8
  %3 = load ptr, ptr %2, align 8
  ret ptr %3
}

; Function Attrs: mustprogress nounwind uwtable
define linkonce_odr hidden noundef ptr @_ZN4llvm8CastInfoINS_2gi30InstructionImmPredicateMatcherEPKNS1_16PredicateMatcherEvE6doCastERKS5_(ptr noundef nonnull align 8 dereferenceable(8) %0) #1 comdat align 2 {
  %2 = alloca ptr, align 8
  store ptr %0, ptr %2, align 8
  %3 = load ptr, ptr %2, align 8
  %4 = load ptr, ptr %3, align 8
  %5 = call noundef ptr @_ZN4llvm16cast_convert_valINS_2gi30InstructionImmPredicateMatcherEPKNS1_16PredicateMatcherES5_E4doitES5_(ptr noundef %4)
  ret ptr %5
}

; Function Attrs: mustprogress nounwind uwtable
define linkonce_odr hidden noundef i32 @_ZNK4llvm2gi16PredicateMatcher7getKindEv(ptr noundef nonnull align 8 dereferenceable(20) %0) #1 comdat align 2 {
  %2 = alloca ptr, align 8
  store ptr %0, ptr %2, align 8
  %3 = load ptr, ptr %2, align 8
  %4 = getelementptr inbounds nuw %"class.llvm::gi::PredicateMatcher", ptr %3, i32 0, i32 1
  %5 = load i32, ptr %4, align 8
  ret i32 %5
}

; Function Attrs: mustprogress nounwind uwtable
define linkonce_odr hidden noundef ptr @_ZN4llvm4castINS_2gi30InstructionImmPredicateMatcherEKNS1_16PredicateMatcherEEEDcPT0_(ptr noundef %0) #1 comdat {
  %2 = alloca ptr, align 8
  store ptr %0, ptr %2, align 8
  %3 = call noundef ptr @_ZN4llvm8CastInfoINS_2gi30InstructionImmPredicateMatcherEPKNS1_16PredicateMatcherEvE6doCastERKS5_(ptr noundef nonnull align 8 dereferenceable(8) %2)
  ret ptr %3
}

; Function Attrs: mustprogress nounwind uwtable
define linkonce_odr hidden noundef ptr @_ZNK4llvm15TreePredicateFn20getOrigPatFragRecordEv(ptr noundef nonnull align 8 dereferenceable(8) %0) #1 comdat align 2 {
  %2 = alloca ptr, align 8
  store ptr %0, ptr %2, align 8
  %3 = load ptr, ptr %2, align 8
  %4 = getelementptr inbounds nuw %"class.llvm::TreePredicateFn", ptr %3, i32 0, i32 0
  %5 = load ptr, ptr %4, align 8
  ret ptr %5
}

; Function Attrs: mustprogress nounwind uwtable
define linkonce_odr hidden noundef zeroext i1 @_ZNK4llvm2gi16PredicateMatcher11isIdenticalERKS1_(ptr noundef nonnull align 8 dereferenceable(20) %0, ptr noundef nonnull align 8 dereferenceable(20) %1) unnamed_addr #1 comdat align 2 {
  %3 = alloca ptr, align 8
  %4 = alloca ptr, align 8
  store ptr %0, ptr %3, align 8
  store ptr %1, ptr %4, align 8
  %5 = load ptr, ptr %3, align 8
  %6 = load ptr, ptr %4, align 8
  %7 = call noundef i32 @_ZNK4llvm2gi16PredicateMatcher7getKindEv(ptr noundef nonnull align 8 dereferenceable(20) %6)
  %8 = call noundef i32 @_ZNK4llvm2gi16PredicateMatcher7getKindEv(ptr noundef nonnull align 8 dereferenceable(20) %5)
  %9 = icmp eq i32 %7, %8
  br i1 %9, label %10, label %24

10:                                               ; preds = %2
  %11 = getelementptr inbounds nuw %"class.llvm::gi::PredicateMatcher", ptr %5, i32 0, i32 2
  %12 = load i32, ptr %11, align 4
  %13 = load ptr, ptr %4, align 8
  %14 = getelementptr inbounds nuw %"class.llvm::gi::PredicateMatcher", ptr %13, i32 0, i32 2
  %15 = load i32, ptr %14, align 4
  %16 = icmp eq i32 %12, %15
  br i1 %16, label %17, label %24

17:                                               ; preds = %10
  %18 = getelementptr inbounds nuw %"class.llvm::gi::PredicateMatcher", ptr %5, i32 0, i32 3
  %19 = load i32, ptr %18, align 8
  %20 = load ptr, ptr %4, align 8
  %21 = getelementptr inbounds nuw %"class.llvm::gi::PredicateMatcher", ptr %20, i32 0, i32 3
  %22 = load i32, ptr %21, align 8
  %23 = icmp eq i32 %19, %22
  br label %24

24:                                               ; preds = %17, %10, %2
  %25 = phi i1 [ false, %10 ], [ false, %2 ], [ %23, %17 ]
  ret i1 %25
}

; Function Attrs: mustprogress nounwind uwtable
define dso_local noundef zeroext i1 @_ZNK4llvm2gi30InstructionImmPredicateMatcher11isIdenticalERKNS0_16PredicateMatcherE(ptr noundef nonnull align 8 dereferenceable(32) %0, ptr noundef nonnull align 8 dereferenceable(20) %1) unnamed_addr #1 align 2 {
  %3 = alloca ptr, align 8
  %4 = alloca ptr, align 8
  store ptr %0, ptr %3, align 8
  store ptr %1, ptr %4, align 8
  %5 = load ptr, ptr %3, align 8
  %6 = load ptr, ptr %4, align 8
  %7 = call noundef zeroext i1 @_ZNK4llvm2gi16PredicateMatcher11isIdenticalERKS1_(ptr noundef nonnull align 8 dereferenceable(20) %5, ptr noundef nonnull align 8 dereferenceable(20) %6)
  br i1 %7, label %8, label %16

8:                                                ; preds = %2
  %9 = getelementptr inbounds nuw %"class.llvm::gi::InstructionImmPredicateMatcher", ptr %5, i32 0, i32 1
  %10 = call noundef ptr @_ZNK4llvm15TreePredicateFn20getOrigPatFragRecordEv(ptr noundef nonnull align 8 dereferenceable(8) %9)
  %11 = load ptr, ptr %4, align 8
  %12 = call noundef ptr @_ZN4llvm4castINS_2gi30InstructionImmPredicateMatcherEKNS1_16PredicateMatcherEEEDcPT0_(ptr noundef %11)
  %13 = getelementptr inbounds nuw %"class.llvm::gi::InstructionImmPredicateMatcher", ptr %12, i32 0, i32 1
  %14 = call noundef ptr @_ZNK4llvm15TreePredicateFn20getOrigPatFragRecordEv(ptr noundef nonnull align 8 dereferenceable(8) %13)
  %15 = icmp eq ptr %10, %14
  br label %16

16:                                               ; preds = %8, %2
  %17 = phi i1 [ false, %2 ], [ %15, %8 ]
  ret i1 %17
}