; Function Attrs: mustprogress nofree norecurse nosync nounwind willreturn memory(argmem: read) uwtable
define dso_local noundef zeroext i1 @_ZNK4llvm2gi30InstructionImmPredicateMatcher11isIdenticalERKNS0_16PredicateMatcherE(ptr nocapture noundef nonnull readonly align 8 dereferenceable(32) %0, ptr nocapture noundef nonnull readonly align 8 dereferenceable(20) %1) unnamed_addr #9 align 2 {
  %3 = getelementptr inbounds nuw i8, ptr %1, i64 8
  %4 = load i32, ptr %3, align 8
  %5 = getelementptr inbounds nuw i8, ptr %0, i64 8
  %6 = load i32, ptr %5, align 8
  %7 = icmp eq i32 %4, %6
  br i1 %7, label %8, label %_ZNK4llvm2gi16PredicateMatcher11isIdenticalERKS1_.exit.thread

8:                                                ; preds = %2
  %9 = getelementptr inbounds nuw i8, ptr %0, i64 12
  %10 = load i32, ptr %9, align 4
  %11 = getelementptr inbounds nuw i8, ptr %1, i64 12
  %12 = load i32, ptr %11, align 4
  %13 = icmp eq i32 %10, %12
  br i1 %13, label %_ZNK4llvm2gi16PredicateMatcher11isIdenticalERKS1_.exit, label %_ZNK4llvm2gi16PredicateMatcher11isIdenticalERKS1_.exit.thread

_ZNK4llvm2gi16PredicateMatcher11isIdenticalERKS1_.exit: ; preds = %8
  %14 = getelementptr inbounds nuw i8, ptr %0, i64 16
  %15 = load i32, ptr %14, align 8
  %16 = getelementptr inbounds nuw i8, ptr %1, i64 16
  %17 = load i32, ptr %16, align 8
  %18 = icmp eq i32 %15, %17
  br i1 %18, label %19, label %_ZNK4llvm2gi16PredicateMatcher11isIdenticalERKS1_.exit.thread

19:                                               ; preds = %_ZNK4llvm2gi16PredicateMatcher11isIdenticalERKS1_.exit
  %20 = getelementptr inbounds nuw i8, ptr %0, i64 24
  %21 = load ptr, ptr %20, align 8
  %22 = getelementptr inbounds nuw i8, ptr %1, i64 24
  %23 = load ptr, ptr %22, align 8
  %24 = icmp eq ptr %21, %23
  br label %_ZNK4llvm2gi16PredicateMatcher11isIdenticalERKS1_.exit.thread

_ZNK4llvm2gi16PredicateMatcher11isIdenticalERKS1_.exit.thread: ; preds = %2, %8, %19, %_ZNK4llvm2gi16PredicateMatcher11isIdenticalERKS1_.exit
  %25 = phi i1 [ false, %_ZNK4llvm2gi16PredicateMatcher11isIdenticalERKS1_.exit ], [ %24, %19 ], [ false, %8 ], [ false, %2 ]
  ret i1 %25
}